; Function Attrs: nounwind sspstrong uwtable
define hidden noundef ptr @rb_st_init_existing_table_with_size(ptr noundef returned captures(ret: address, provenance) %0, ptr noundef %1, i64 noundef %2) local_unnamed_addr #0 {
  %4 = icmp ult i64 %2, 4611686018427387904
  br i1 %4, label %get_power2.exit, label %5

5:                                                ; preds = %3
  %6 = load i64, ptr @rb_eRuntimeError, align 8, !tbaa !7
  tail call void (i64, ptr, ...) @rb_raise(i64 noundef %6, ptr noundef nonnull @.str.1) #23
  unreachable

get_power2.exit:                                  ; preds = %3
  %7 = tail call range(i64 0, 65) i64 @llvm.ctlz.i64(i64 %2, i1 false)
  %8 = trunc nuw nsw i64 %7 to i32
  %9 = sub nuw nsw i32 64, %8
  %10 = tail call range(i32 2, 63) i32 @llvm.umax.i32(i32 %9, i32 2)
  %11 = getelementptr inbounds nuw i8, ptr %0, i64 8
  store ptr %1, ptr %11, align 8, !tbaa !11
  %12 = trunc nuw nsw i32 %10 to i8
  store i8 %12, ptr %0, align 8, !tbaa !18
  %13 = zext nneg i32 %10 to i64
  %14 = getelementptr [63 x %struct.st_features], ptr @features, i64 0, i64 %13
  %15 = getelementptr inbounds nuw i8, ptr %14, i64 1
  %16 = load i8, ptr %15, align 1, !tbaa !19
  %17 = getelementptr inbounds nuw i8, ptr %0, i64 1
  store i8 %16, ptr %17, align 1, !tbaa !21
  %18 = getelementptr inbounds nuw i8, ptr %14, i64 2
  %19 = load i8, ptr %18, align 2, !tbaa !22
  %20 = getelementptr inbounds nuw i8, ptr %0, i64 2
  store i8 %19, ptr %20, align 2, !tbaa !23
  %21 = icmp samesign ult i64 %2, 16
  br i1 %21, label %27, label %22

22:                                               ; preds = %get_power2.exit
  %23 = getelementptr [63 x %struct.st_features], ptr @features, i64 0, i64 %13, i32 3
  %24 = load i64, ptr %23, align 8, !tbaa !24
  %25 = shl i64 %24, 3
  %26 = tail call noalias nonnull ptr @ruby_xmalloc(i64 noundef %25) #24
  %.val17.pre = load i8, ptr %0, align 8, !tbaa !18
  br label %27

27:                                               ; preds = %get_power2.exit, %22
  %.val17 = phi i8 [ %.val17.pre, %22 ], [ %12, %get_power2.exit ]
  %.sink = phi ptr [ %26, %22 ], [ null, %get_power2.exit ]
  %28 = getelementptr inbounds nuw i8, ptr %0, i64 24
  store ptr %.sink, ptr %28, align 8, !tbaa !25
  %29 = zext nneg i8 %.val17 to i64
  %30 = shl i64 24, %29
  %31 = tail call noalias nonnull ptr @ruby_xmalloc(i64 noundef %30) #24
  %32 = getelementptr inbounds nuw i8, ptr %0, i64 48
  store ptr %31, ptr %32, align 8, !tbaa !26
  %33 = getelementptr inbounds nuw i8, ptr %0, i64 16
  store i64 0, ptr %33, align 8, !tbaa !27
  %34 = getelementptr inbounds nuw i8, ptr %0, i64 32
  tail call void @llvm.memset.p0.i64(ptr noundef nonnull align 8 dereferenceable(16) %34, i8 0, i64 16, i1 false)
  %35 = load ptr, ptr %28, align 8, !tbaa !25
  %.not.i = icmp eq ptr %35, null
  br i1 %.not.i, label %make_tab_empty.exit, label %36

36:                                               ; preds = %27
  %.val.i = load i8, ptr %0, align 8, !tbaa !18
  %37 = zext i8 %.val.i to i64
  %38 = getelementptr [63 x %struct.st_features], ptr @features, i64 0, i64 %37, i32 3
  %39 = load i64, ptr %38, align 8, !tbaa !24
  %40 = shl i64 %39, 3
  tail call void @llvm.memset.p0.i64(ptr noundef nonnull align 1 %35, i8 noundef 0, i64 noundef %40, i1 noundef false) #25
  br label %make_tab_empty.exit

make_tab_empty.exit:                              ; preds = %27, %36
  %41 = getelementptr inbounds nuw i8, ptr %0, i64 4
  store i32 0, ptr %41, align 4, !tbaa !28
  ret ptr %0
}